; Function Attrs: nounwind uwtable
define ptr @ASN1_item_d2i_bio(ptr noundef %0, ptr noundef %1, ptr noundef %2) local_unnamed_addr #0 {
  %4 = alloca ptr, align 8
  %5 = alloca ptr, align 8
  call void @llvm.lifetime.start.p0(i64 8, ptr nonnull %4) #4
  store ptr null, ptr %4, align 8, !tbaa !3
  call void @llvm.lifetime.start.p0(i64 8, ptr nonnull %5) #4
  %6 = icmp eq ptr %1, null
  br i1 %6, label %ASN1_item_d2i_bio_ex.exit, label %7

7:                                                ; preds = %3
  %8 = call i32 @asn1_d2i_read_bio(ptr noundef nonnull %1, ptr noundef nonnull %4)
  %9 = icmp slt i32 %8, 0
  %.pre.i = load ptr, ptr %4, align 8, !tbaa !3
  br i1 %9, label %15, label %10

10:                                               ; preds = %7
  %11 = getelementptr inbounds nuw i8, ptr %.pre.i, i64 8
  %12 = load ptr, ptr %11, align 8, !tbaa !8
  store ptr %12, ptr %5, align 8, !tbaa !12
  %13 = zext nneg i32 %8 to i64
  %14 = call ptr @ASN1_item_d2i_ex(ptr noundef %2, ptr noundef nonnull %5, i64 noundef %13, ptr noundef %0, ptr noundef null, ptr noundef null) #4
  br label %15

15:                                               ; preds = %10, %7
  %.09.i = phi ptr [ null, %7 ], [ %14, %10 ]
  call void @BUF_MEM_free(ptr noundef %.pre.i) #4
  br label %ASN1_item_d2i_bio_ex.exit

ASN1_item_d2i_bio_ex.exit:                        ; preds = %3, %15
  %.0.i = phi ptr [ %.09.i, %15 ], [ null, %3 ]
  call void @llvm.lifetime.end.p0(i64 8, ptr nonnull %5) #4
  call void @llvm.lifetime.end.p0(i64 8, ptr nonnull %4) #4
  ret ptr %.0.i
}